target datalayout = "e-m:e-p270:32:32-p271:32:32-p272:64:64-i64:64-i128:128-f80:128-n8:16:32:64-S128"
target triple = "x86_64-pc-linux-gnu"

%struct.b2HashSet = type { ptr, i32, i32 }
%struct.b2IntArray = type { ptr, i32, i32 }
%struct.b2DynamicTree = type { ptr, i32, i32, i32, i32, i32, ptr, ptr, ptr, ptr, i32 }
%struct.b2BroadPhase = type { [3 x %struct.b2DynamicTree], i32, %struct.b2HashSet, %struct.b2IntArray, ptr, ptr, i32, %struct.b2AtomicInt, %struct.b2HashSet }
%struct.b2AtomicInt = type { i32 }

; Function Attrs: inlinehint nounwind uwtable
define internal void @b2AtomicStoreInt(ptr noundef %0, i32 noundef %1) #4 {
  %3 = alloca ptr, align 8
  %4 = alloca i32, align 4
  %5 = alloca i32, align 4
  store ptr %0, ptr %3, align 8, !tbaa !35
  store i32 %1, ptr %4, align 4, !tbaa !20
  %6 = load ptr, ptr %3, align 8, !tbaa !35
  %7 = getelementptr inbounds nuw %struct.b2AtomicInt, ptr %6, i32 0, i32 0
  %8 = load i32, ptr %4, align 4, !tbaa !20
  store i32 %8, ptr %5, align 4, !tbaa !20
  %9 = load i32, ptr %5, align 4
  store atomic i32 %9, ptr %7 seq_cst, align 4
  ret void
}

; Function Attrs: nounwind uwtable
define hidden void @b2CreateBroadPhase(ptr noundef %0) #0 {
  %2 = alloca ptr, align 8
  %3 = alloca %struct.b2HashSet, align 8
  %4 = alloca %struct.b2IntArray, align 8
  %5 = alloca %struct.b2HashSet, align 8
  %6 = alloca i32, align 4
  %7 = alloca %struct.b2DynamicTree, align 8
  store ptr %0, ptr %2, align 8, !tbaa !3
  %8 = load ptr, ptr %2, align 8, !tbaa !3
  %9 = getelementptr inbounds nuw %struct.b2BroadPhase, ptr %8, i32 0, i32 1
  store i32 0, ptr %9, align 8, !tbaa !8
  %10 = load ptr, ptr %2, align 8, !tbaa !3
  %11 = getelementptr inbounds nuw %struct.b2BroadPhase, ptr %10, i32 0, i32 2
  call void @llvm.lifetime.start.p0(i64 16, ptr %3) #8
  %12 = call { ptr, i64 } @b2CreateSet(i32 noundef 16)
  %13 = getelementptr inbounds nuw { ptr, i64 }, ptr %3, i32 0, i32 0
  %14 = extractvalue { ptr, i64 } %12, 0
  store ptr %14, ptr %13, align 8
  %15 = getelementptr inbounds nuw { ptr, i64 }, ptr %3, i32 0, i32 1
  %16 = extractvalue { ptr, i64 } %12, 1
  store i64 %16, ptr %15, align 8
  call void @llvm.memcpy.p0.p0.i64(ptr align 8 %11, ptr align 8 %3, i64 16, i1 false), !tbaa.struct !18
  call void @llvm.lifetime.end.p0(i64 16, ptr %3) #8
  %17 = load ptr, ptr %2, align 8, !tbaa !3
  %18 = getelementptr inbounds nuw %struct.b2BroadPhase, ptr %17, i32 0, i32 3
  call void @llvm.lifetime.start.p0(i64 16, ptr %4) #8
  %19 = call { ptr, i64 } @b2IntArray_Create(i32 noundef 16)
  %20 = getelementptr inbounds nuw { ptr, i64 }, ptr %4, i32 0, i32 0
  %21 = extractvalue { ptr, i64 } %19, 0
  store ptr %21, ptr %20, align 8
  %22 = getelementptr inbounds nuw { ptr, i64 }, ptr %4, i32 0, i32 1
  %23 = extractvalue { ptr, i64 } %19, 1
  store i64 %23, ptr %22, align 8
  call void @llvm.memcpy.p0.p0.i64(ptr align 8 %18, ptr align 8 %4, i64 16, i1 false), !tbaa.struct !21
  call void @llvm.lifetime.end.p0(i64 16, ptr %4) #8
  %24 = load ptr, ptr %2, align 8, !tbaa !3
  %25 = getelementptr inbounds nuw %struct.b2BroadPhase, ptr %24, i32 0, i32 4
  store ptr null, ptr %25, align 8, !tbaa !23
  %26 = load ptr, ptr %2, align 8, !tbaa !3
  %27 = getelementptr inbounds nuw %struct.b2BroadPhase, ptr %26, i32 0, i32 5
  store ptr null, ptr %27, align 8, !tbaa !24
  %28 = load ptr, ptr %2, align 8, !tbaa !3
  %29 = getelementptr inbounds nuw %struct.b2BroadPhase, ptr %28, i32 0, i32 6
  store i32 0, ptr %29, align 8, !tbaa !25
  %30 = load ptr, ptr %2, align 8, !tbaa !3
  %31 = getelementptr inbounds nuw %struct.b2BroadPhase, ptr %30, i32 0, i32 7
  call void @b2AtomicStoreInt(ptr noundef %31, i32 noundef 0)
  %32 = load ptr, ptr %2, align 8, !tbaa !3
  %33 = getelementptr inbounds nuw %struct.b2BroadPhase, ptr %32, i32 0, i32 8
  call void @llvm.lifetime.start.p0(i64 16, ptr %5) #8
  %34 = call { ptr, i64 } @b2CreateSet(i32 noundef 32)
  %35 = getelementptr inbounds nuw { ptr, i64 }, ptr %5, i32 0, i32 0
  %36 = extractvalue { ptr, i64 } %34, 0
  store ptr %36, ptr %35, align 8
  %37 = getelementptr inbounds nuw { ptr, i64 }, ptr %5, i32 0, i32 1
  %38 = extractvalue { ptr, i64 } %34, 1
  store i64 %38, ptr %37, align 8
  call void @llvm.memcpy.p0.p0.i64(ptr align 8 %33, ptr align 8 %5, i64 16, i1 false), !tbaa.struct !18
  call void @llvm.lifetime.end.p0(i64 16, ptr %5) #8
  call void @llvm.lifetime.start.p0(i64 4, ptr %6) #8
  store i32 0, ptr %6, align 4, !tbaa !20
  br label %39

39:                                               ; preds = %49, %1
  %40 = load i32, ptr %6, align 4, !tbaa !20
  %41 = icmp slt i32 %40, 3
  br i1 %41, label %43, label %42

42:                                               ; preds = %39
  call void @llvm.lifetime.end.p0(i64 4, ptr %6) #8
  br label %52

43:                                               ; preds = %39
  %44 = load ptr, ptr %2, align 8, !tbaa !3
  %45 = getelementptr inbounds nuw %struct.b2BroadPhase, ptr %44, i32 0, i32 0
  %46 = load i32, ptr %6, align 4, !tbaa !20
  %47 = sext i32 %46 to i64
  %48 = getelementptr inbounds [3 x %struct.b2DynamicTree], ptr %45, i64 0, i64 %47
  call void @llvm.lifetime.start.p0(i64 72, ptr %7) #8
  call void @b2DynamicTree_Create(ptr dead_on_unwind writable sret(%struct.b2DynamicTree) align 8 %7)
  call void @llvm.memcpy.p0.p0.i64(ptr align 8 %48, ptr align 8 %7, i64 72, i1 false), !tbaa.struct !26
  call void @llvm.lifetime.end.p0(i64 72, ptr %7) #8
  br label %49

49:                                               ; preds = %43
  %50 = load i32, ptr %6, align 4, !tbaa !20
  %51 = add nsw i32 %50, 1
  store i32 %51, ptr %6, align 4, !tbaa !20
  br label %39, !llvm.loop !33

52:                                               ; preds = %42
  ret void
}