; Function Attrs: nounwind uwtable
define hidden void @b2CreateBroadPhase(ptr noundef writeonly captures(none) initializes((216, 220), (224, 276)) %0) local_unnamed_addr #0 {
  %2 = alloca %struct.b2DynamicTree, align 8
  %3 = getelementptr inbounds nuw i8, ptr %0, i64 216
  store i32 0, ptr %3, align 8, !tbaa !3
  %4 = getelementptr inbounds nuw i8, ptr %0, i64 224
  %5 = tail call { ptr, i64 } @b2CreateSet(i32 noundef 16) #8
  %6 = extractvalue { ptr, i64 } %5, 0
  %7 = extractvalue { ptr, i64 } %5, 1
  store ptr %6, ptr %4, align 8, !tbaa !16
  %.sroa.46.0..sroa_idx = getelementptr inbounds nuw i8, ptr %0, i64 232
  store i64 %7, ptr %.sroa.46.0..sroa_idx, align 8
  %8 = getelementptr inbounds nuw i8, ptr %0, i64 240
  %9 = tail call { ptr, i64 } @b2IntArray_Create(i32 noundef 16) #8
  %10 = extractvalue { ptr, i64 } %9, 0
  %11 = extractvalue { ptr, i64 } %9, 1
  store ptr %10, ptr %8, align 8, !tbaa !17
  %.sroa.44.0..sroa_idx = getelementptr inbounds nuw i8, ptr %0, i64 248
  store i64 %11, ptr %.sroa.44.0..sroa_idx, align 8
  %12 = getelementptr inbounds nuw i8, ptr %0, i64 256
  %13 = getelementptr inbounds nuw i8, ptr %0, i64 276
  tail call void @llvm.memset.p0.i64(ptr noundef nonnull align 8 dereferenceable(20) %12, i8 0, i64 20, i1 false)
  store atomic i32 0, ptr %13 seq_cst, align 4
  %14 = getelementptr inbounds nuw i8, ptr %0, i64 280
  %15 = tail call { ptr, i64 } @b2CreateSet(i32 noundef 32) #8
  %16 = extractvalue { ptr, i64 } %15, 0
  %17 = extractvalue { ptr, i64 } %15, 1
  store ptr %16, ptr %14, align 8, !tbaa !16
  %.sroa.4.0..sroa_idx = getelementptr inbounds nuw i8, ptr %0, i64 288
  store i64 %17, ptr %.sroa.4.0..sroa_idx, align 8
  br label %19

18:                                               ; preds = %19
  ret void

19:                                               ; preds = %1, %19
  %indvars.iv = phi i64 [ 0, %1 ], [ %indvars.iv.next, %19 ]
  %20 = getelementptr inbounds nuw [3 x %struct.b2DynamicTree], ptr %0, i64 0, i64 %indvars.iv
  call void @llvm.lifetime.start.p0(i64 72, ptr nonnull %2) #8
  call void @b2DynamicTree_Create(ptr dead_on_unwind nonnull writable sret(%struct.b2DynamicTree) align 8 %2) #8
  call void @llvm.memcpy.p0.p0.i64(ptr noundef nonnull align 8 dereferenceable(72) %20, ptr noundef nonnull align 8 dereferenceable(72) %2, i64 72, i1 false), !tbaa.struct !18
  call void @llvm.lifetime.end.p0(i64 72, ptr nonnull %2) #8
  %indvars.iv.next = add nuw nsw i64 %indvars.iv, 1
  %exitcond.not = icmp eq i64 %indvars.iv.next, 3
  br i1 %exitcond.not, label %18, label %19, !llvm.loop !26
}